; Function Attrs: mustprogress nofree norecurse nosync nounwind willreturn memory(argmem: read) uwtable
define dso_local noundef zeroext i1 @_ZNK4llvm9MCAsmInfo16isAcceptableCharEc(ptr nocapture noundef nonnull readonly align 8 dereferenceable(484) %0, i8 noundef signext %1) unnamed_addr #7 align 2 {
  %3 = icmp eq i8 %1, 64
  br i1 %3, label %4, label %8

4:                                                ; preds = %2
  %5 = getelementptr inbounds nuw i8, ptr %0, i64 180
  %6 = load i8, ptr %5, align 4
  %7 = trunc i8 %6 to i1
  br label %switch.edge

8:                                                ; preds = %2
  %9 = and i8 %1, -33
  %10 = add i8 %9, -65
  %11 = icmp ult i8 %10, 26
  %12 = add i8 %1, -48
  %13 = icmp ult i8 %12, 10
  %14 = or i1 %13, %11
  br i1 %14, label %switch.edge, label %switch.early.test

switch.early.test:                                ; preds = %8
  %switch.tableidx = add i8 %1, -36
  %15 = icmp ult i8 %switch.tableidx, 60
  br i1 %15, label %switch.lookup, label %switch.edge

switch.lookup:                                    ; preds = %switch.early.test
  %switch.cast = zext nneg i8 %switch.tableidx to i60
  %switch.downshift = lshr i60 -576460752303422463, %switch.cast
  %switch.masked = trunc i60 %switch.downshift to i1
  br label %switch.edge

switch.edge:                                      ; preds = %switch.early.test, %switch.lookup, %8, %4
  %.0 = phi i1 [ %7, %4 ], [ true, %8 ], [ %switch.masked, %switch.lookup ], [ false, %switch.early.test ]
  ret i1 %.0
}